target datalayout = "e-m:e-p270:32:32-p271:32:32-p272:64:64-i64:64-i128:128-f80:128-n8:16:32:64-S128"
target triple = "x86_64-unknown-linux-gnu"

%"class.google::protobuf::Reflection" = type { ptr, %"struct.google::protobuf::internal::ReflectionSchema", ptr, ptr, i32, %"class.absl::lts_20230802::once_flag", ptr }
%"struct.google::protobuf::internal::ReflectionSchema" = type { ptr, ptr, ptr, i32, i32, i32, i32, i32, i32, ptr, i32, i32, i32 }
%"class.absl::lts_20230802::once_flag" = type { %"struct.std::atomic.1" }
%"struct.std::atomic.1" = type { %"struct.std::__atomic_base.2" }
%"struct.std::__atomic_base.2" = type { i32 }
%"struct.google::protobuf::internal::InternalMetadata::Container" = type { %"struct.google::protobuf::internal::InternalMetadata::ContainerBase", %"class.google::protobuf::UnknownFieldSet" }
%"struct.google::protobuf::internal::InternalMetadata::ContainerBase" = type { ptr }
%"class.google::protobuf::UnknownFieldSet" = type { %"class.std::vector" }
%"class.std::vector" = type { %"struct.std::_Vector_base" }
%"struct.std::_Vector_base" = type { %"struct.std::_Vector_base<google::protobuf::UnknownField, std::allocator<google::protobuf::UnknownField>>::_Vector_impl" }
%"struct.std::_Vector_base<google::protobuf::UnknownField, std::allocator<google::protobuf::UnknownField>>::_Vector_impl" = type { %"struct.std::_Vector_base<google::protobuf::UnknownField, std::allocator<google::protobuf::UnknownField>>::_Vector_impl_data" }
%"struct.std::_Vector_base<google::protobuf::UnknownField, std::allocator<google::protobuf::UnknownField>>::_Vector_impl_data" = type { ptr, ptr, ptr }
%"class.google::protobuf::internal::InternalMetadata" = type { i64 }

; Function Attrs: mustprogress nounwind uwtable
define linkonce_odr hidden noundef ptr @_ZN6google8protobuf8internal18GetPointerAtOffsetINS1_16InternalMetadataEEEPT_Pvj(ptr noundef %message, i32 noundef %offset) #4 comdat {
entry:
  %message.addr = alloca ptr, align 8
  %offset.addr = alloca i32, align 4
  store ptr %message, ptr %message.addr, align 8
  store i32 %offset, ptr %offset.addr, align 4
  %0 = load ptr, ptr %message.addr, align 8
  %1 = load i32, ptr %offset.addr, align 4
  %idx.ext = zext i32 %1 to i64
  %add.ptr = getelementptr inbounds i8, ptr %0, i64 %idx.ext
  ret ptr %add.ptr
}

; Function Attrs: mustprogress nounwind uwtable
define linkonce_odr hidden noundef i32 @_ZNK6google8protobuf8internal16ReflectionSchema17GetMetadataOffsetEv(ptr noundef nonnull align 8 dereferenceable(72) %this) #4 comdat align 2 {
entry:
  %this.addr = alloca ptr, align 8
  store ptr %this, ptr %this.addr, align 8
  %this1 = load ptr, ptr %this.addr, align 8
  %metadata_offset_ = getelementptr inbounds %"struct.google::protobuf::internal::ReflectionSchema", ptr %this1, i32 0, i32 4
  %0 = load i32, ptr %metadata_offset_, align 4
  ret i32 %0
}

; Function Attrs: mustprogress nounwind uwtable
define linkonce_odr hidden noundef ptr @_ZNK6google8protobuf8internal16InternalMetadata8PtrValueINS2_9ContainerINS0_15UnknownFieldSetEEEEEPT_v(ptr noundef nonnull align 8 dereferenceable(8) %this) #4 comdat align 2 {
entry:
  %this.addr = alloca ptr, align 8
  store ptr %this, ptr %this.addr, align 8
  %this1 = load ptr, ptr %this.addr, align 8
  %ptr_ = getelementptr inbounds %"class.google::protobuf::internal::InternalMetadata", ptr %this1, i32 0, i32 0
  %0 = load i64, ptr %ptr_, align 8
  %and = and i64 %0, -2
  %1 = inttoptr i64 %and to ptr
  ret ptr %1
}

; Function Attrs: mustprogress uwtable
define noundef ptr @_ZNK6google8protobuf10Reflection23MutableInternalMetadataEPNS0_7MessageE(ptr noundef nonnull align 8 dereferenceable(112) %this, ptr noundef %message) #5 align 2 {
entry:
  %this.addr = alloca ptr, align 8
  %message.addr = alloca ptr, align 8
  store ptr %this, ptr %this.addr, align 8
  store ptr %message, ptr %message.addr, align 8
  %this1 = load ptr, ptr %this.addr, align 8
  %0 = load ptr, ptr %message.addr, align 8
  %schema_ = getelementptr inbounds %"class.google::protobuf::Reflection", ptr %this1, i32 0, i32 1
  %call = call noundef i32 @_ZNK6google8protobuf8internal16ReflectionSchema17GetMetadataOffsetEv(ptr noundef nonnull align 8 dereferenceable(72) %schema_)
  %call2 = call noundef ptr @_ZN6google8protobuf8internal18GetPointerAtOffsetINS1_16InternalMetadataEEEPT_Pvj(ptr noundef %0, i32 noundef %call)
  ret ptr %call2
}

; Function Attrs: mustprogress uwtable
define noundef ptr @_ZNK6google8protobuf10Reflection20MutableUnknownFieldsEPNS0_7MessageE(ptr noundef nonnull align 8 dereferenceable(112) %this, ptr noundef %message) #5 align 2 {
entry:
  %this.addr.i6 = alloca ptr, align 8
  %this.addr.i3 = alloca ptr, align 8
  %retval.i = alloca ptr, align 8
  %this.addr.i = alloca ptr, align 8
  %this.addr = alloca ptr, align 8
  %message.addr = alloca ptr, align 8
  store ptr %this, ptr %this.addr, align 8
  store ptr %message, ptr %message.addr, align 8
  %this1 = load ptr, ptr %this.addr, align 8
  %0 = load ptr, ptr %message.addr, align 8
  %call = call noundef ptr @_ZNK6google8protobuf10Reflection23MutableInternalMetadataEPNS0_7MessageE(ptr noundef nonnull align 8 dereferenceable(112) %this1, ptr noundef %0)
  store ptr %call, ptr %this.addr.i, align 8
  %this1.i = load ptr, ptr %this.addr.i, align 8
  store ptr %this1.i, ptr %this.addr.i3, align 8
  %this1.i4 = load ptr, ptr %this.addr.i3, align 8
  store ptr %this1.i4, ptr %this.addr.i6, align 8
  %this1.i7 = load ptr, ptr %this.addr.i6, align 8
  %1 = load i64, ptr %this1.i7, align 8
  %and.i = and i64 %1, 1
  %tobool.i = icmp ne i64 %and.i, 0
  br i1 %tobool.i, label %if.then.i, label %if.else.i

if.then.i:                                        ; preds = %entry
  %call2.i = call noundef ptr @_ZNK6google8protobuf8internal16InternalMetadata8PtrValueINS2_9ContainerINS0_15UnknownFieldSetEEEEEPT_v(ptr noundef nonnull align 8 dereferenceable(8) %this1.i)
  %unknown_fields.i = getelementptr inbounds %"struct.google::protobuf::internal::InternalMetadata::Container", ptr %call2.i, i32 0, i32 1
  store ptr %unknown_fields.i, ptr %retval.i, align 8
  br label %_ZN6google8protobuf8internal16InternalMetadata22mutable_unknown_fieldsINS0_15UnknownFieldSetEEEPT_v.exit

if.else.i:                                        ; preds = %entry
  %call3.i = call noundef ptr @_ZN6google8protobuf8internal16InternalMetadata27mutable_unknown_fields_slowINS0_15UnknownFieldSetEEEPT_v(ptr noundef nonnull align 8 dereferenceable(8) %this1.i)
  store ptr %call3.i, ptr %retval.i, align 8
  br label %_ZN6google8protobuf8internal16InternalMetadata22mutable_unknown_fieldsINS0_15UnknownFieldSetEEEPT_v.exit

_ZN6google8protobuf8internal16InternalMetadata22mutable_unknown_fieldsINS0_15UnknownFieldSetEEEPT_v.exit: ; preds = %if.else.i, %if.then.i
  %2 = load ptr, ptr %retval.i, align 8
  ret ptr %2
}