; Function Attrs: mustprogress uwtable
define noundef ptr @_ZNK6google8protobuf10Reflection20MutableUnknownFieldsEPNS0_7MessageE(ptr nocapture noundef nonnull readonly align 8 dereferenceable(112) %this, ptr noundef %message) local_unnamed_addr #4 align 2 {
entry:
  %metadata_offset_.i.i = getelementptr inbounds i8, ptr %this, i64 36
  %0 = load i32, ptr %metadata_offset_.i.i, align 4
  %idx.ext.i.i = zext i32 %0 to i64
  %add.ptr.i.i = getelementptr inbounds i8, ptr %message, i64 %idx.ext.i.i
  %1 = load i64, ptr %add.ptr.i.i, align 8
  %and.i = and i64 %1, 1
  %tobool.i.not = icmp eq i64 %and.i, 0
  br i1 %tobool.i.not, label %if.else.i, label %if.then.i

if.then.i:                                        ; preds = %entry
  %and.i1 = and i64 %1, -2
  %2 = inttoptr i64 %and.i1 to ptr
  %unknown_fields.i = getelementptr inbounds i8, ptr %2, i64 8
  br label %_ZN6google8protobuf8internal16InternalMetadata22mutable_unknown_fieldsINS0_15UnknownFieldSetEEEPT_v.exit

if.else.i:                                        ; preds = %entry
  %call3.i = tail call noundef ptr @_ZN6google8protobuf8internal16InternalMetadata27mutable_unknown_fields_slowINS0_15UnknownFieldSetEEEPT_v(ptr noundef nonnull align 8 dereferenceable(8) %add.ptr.i.i)
  br label %_ZN6google8protobuf8internal16InternalMetadata22mutable_unknown_fieldsINS0_15UnknownFieldSetEEEPT_v.exit

_ZN6google8protobuf8internal16InternalMetadata22mutable_unknown_fieldsINS0_15UnknownFieldSetEEEPT_v.exit: ; preds = %if.else.i, %if.then.i
  %retval.i.0 = phi ptr [ %unknown_fields.i, %if.then.i ], [ %call3.i, %if.else.i ]
  ret ptr %retval.i.0
}